; Function Attrs: mustprogress uwtable
define void @_ZN3re23RE2C2EPKc(ptr noundef nonnull align 8 dereferenceable(148) initializes((8, 31)) %this, ptr noundef %pattern) unnamed_addr #2 align 2 personality ptr @__gxx_personality_v0 {
entry:
  %ref.tmp = alloca %"class.re2::RE2::Options", align 8
  %options_ = getelementptr inbounds nuw i8, ptr %this, i64 8
  store i64 8388608, ptr %options_, align 8
  %encoding_.i = getelementptr inbounds nuw i8, ptr %this, i64 16
  store i32 1, ptr %encoding_.i, align 8
  %posix_syntax_.i = getelementptr inbounds nuw i8, ptr %this, i64 20
  store i8 0, ptr %posix_syntax_.i, align 4
  %longest_match_.i = getelementptr inbounds nuw i8, ptr %this, i64 21
  store i8 0, ptr %longest_match_.i, align 1
  %log_errors_.i = getelementptr inbounds nuw i8, ptr %this, i64 22
  store i8 1, ptr %log_errors_.i, align 2
  %literal_.i = getelementptr inbounds nuw i8, ptr %this, i64 23
  %case_sensitive_.i = getelementptr inbounds nuw i8, ptr %this, i64 27
  store i32 0, ptr %literal_.i, align 1
  store i8 1, ptr %case_sensitive_.i, align 1
  %perl_classes_.i = getelementptr inbounds nuw i8, ptr %this, i64 28
  store i8 0, ptr %perl_classes_.i, align 4
  %word_boundary_.i = getelementptr inbounds nuw i8, ptr %this, i64 29
  store i8 0, ptr %word_boundary_.i, align 1
  %one_line_.i = getelementptr inbounds nuw i8, ptr %this, i64 30
  store i8 0, ptr %one_line_.i, align 2
  %prefix_ = getelementptr inbounds nuw i8, ptr %this, i64 72
  tail call void @_ZNSt7__cxx1112basic_stringIcSt11char_traitsIcESaIcEEC1Ev(ptr noundef nonnull align 8 dereferenceable(32) %prefix_) #30
  %rprog_once_ = getelementptr inbounds nuw i8, ptr %this, i64 136
  store i32 0, ptr %rprog_once_, align 8
  %named_groups_once_ = getelementptr inbounds nuw i8, ptr %this, i64 140
  store i32 0, ptr %named_groups_once_, align 4
  %group_names_once_ = getelementptr inbounds nuw i8, ptr %this, i64 144
  store i32 0, ptr %group_names_once_, align 8
  %tobool.not.i = icmp eq ptr %pattern, null
  br i1 %tobool.not.i, label %invoke.cont4, label %cond.true.i

cond.true.i:                                      ; preds = %entry
  %call.i.i = tail call noundef i64 @strlen(ptr noundef nonnull dereferenceable(1) %pattern) #30
  %cmp.i.i = icmp sgt i64 %call.i.i, -1
  br i1 %cmp.i.i, label %invoke.cont4, label %cond.false.i.i

cond.false.i.i:                                   ; preds = %cond.true.i
  tail call void @llvm.trap()
  unreachable

invoke.cont4:                                     ; preds = %cond.true.i, %entry
  %cond.i = phi i64 [ 0, %entry ], [ %call.i.i, %cond.true.i ]
  invoke void @_ZN3re23RE27OptionsC1ENS0_13CannedOptionsE(ptr noundef nonnull align 8 dereferenceable(23) %ref.tmp, i32 noundef 0)
          to label %invoke.cont5 unwind label %lpad

invoke.cont5:                                     ; preds = %invoke.cont4
  invoke void @_ZN3re23RE24InitEN4absl7debian211string_viewERKNS0_7OptionsE(ptr noundef nonnull align 8 dereferenceable(148) %this, ptr %pattern, i64 %cond.i, ptr noundef nonnull align 8 dereferenceable(23) %ref.tmp)
          to label %invoke.cont6 unwind label %lpad

invoke.cont6:                                     ; preds = %invoke.cont5
  ret void

lpad:                                             ; preds = %invoke.cont5, %invoke.cont4
  %0 = landingpad { ptr, i32 }
          cleanup
  call void @_ZNSt7__cxx1112basic_stringIcSt11char_traitsIcESaIcEED1Ev(ptr noundef nonnull align 8 dereferenceable(32) %prefix_) #30
  resume { ptr, i32 } %0
}